; Function Attrs: nounwind sspstrong uwtable
define internal noundef i64 @ossl_ec_group_set_asn1_flag(i64 noundef %0, i64 noundef returned %1) #0 {
  %3 = tail call ptr @rb_check_typeddata(i64 noundef %0, ptr noundef nonnull @ossl_ec_group_type) #7
  %4 = icmp eq ptr %3, null
  br i1 %4, label %5, label %7

5:                                                ; preds = %2
  %6 = load i64, ptr @eEC_GROUP, align 8, !tbaa !6
  tail call void (i64, ptr, ...) @ossl_raise(i64 noundef %6, ptr noundef nonnull @.str.59) #9
  unreachable

7:                                                ; preds = %2
  %8 = and i64 %1, 1
  %.not.i = icmp eq i64 %8, 0
  br i1 %.not.i, label %11, label %9

9:                                                ; preds = %7
  %10 = tail call i64 @rb_fix2int(i64 noundef %1) #7
  br label %rb_num2int_inline.exit

11:                                               ; preds = %7
  %12 = tail call i64 @rb_num2int(i64 noundef %1) #7
  br label %rb_num2int_inline.exit

rb_num2int_inline.exit:                           ; preds = %9, %11
  %.0.i = phi i64 [ %10, %9 ], [ %12, %11 ]
  %13 = trunc i64 %.0.i to i32
  tail call void @EC_GROUP_set_asn1_flag(ptr noundef nonnull %3, i32 noundef %13) #7
  ret i64 %1
}